target datalayout = "e-m:e-p270:32:32-p271:32:32-p272:64:64-i64:64-i128:128-f80:128-n8:16:32:64-S128"
target triple = "x86_64-pc-linux-gnu"

%"struct.Luau::CodeGen::A64::RegisterA64" = type { i8 }
%"class.Luau::CodeGen::A64::AssemblyBuilderA64" = type { %"class.std::vector", %"class.std::vector.0", %"class.std::__cxx11::basic_string", i8, i32, i32, %"class.std::vector.8", %"class.std::vector.0", i8, i8, i64, ptr, ptr }
%"class.std::vector" = type { %"struct.std::_Vector_base" }
%"struct.std::_Vector_base" = type { %"struct.std::_Vector_base<unsigned char, std::allocator<unsigned char>>::_Vector_impl" }
%"struct.std::_Vector_base<unsigned char, std::allocator<unsigned char>>::_Vector_impl" = type { %"struct.std::_Vector_base<unsigned char, std::allocator<unsigned char>>::_Vector_impl_data" }
%"struct.std::_Vector_base<unsigned char, std::allocator<unsigned char>>::_Vector_impl_data" = type { ptr, ptr, ptr }
%"class.std::__cxx11::basic_string" = type { %"struct.std::__cxx11::basic_string<char>::_Alloc_hider", i64, %union.anon }
%"struct.std::__cxx11::basic_string<char>::_Alloc_hider" = type { ptr }
%union.anon = type { i64, [8 x i8] }
%"class.std::vector.8" = type { %"struct.std::_Vector_base.9" }
%"struct.std::_Vector_base.9" = type { %"struct.std::_Vector_base<Luau::CodeGen::A64::AssemblyBuilderA64::Patch, std::allocator<Luau::CodeGen::A64::AssemblyBuilderA64::Patch>>::_Vector_impl" }
%"struct.std::_Vector_base<Luau::CodeGen::A64::AssemblyBuilderA64::Patch, std::allocator<Luau::CodeGen::A64::AssemblyBuilderA64::Patch>>::_Vector_impl" = type { %"struct.std::_Vector_base<Luau::CodeGen::A64::AssemblyBuilderA64::Patch, std::allocator<Luau::CodeGen::A64::AssemblyBuilderA64::Patch>>::_Vector_impl_data" }
%"struct.std::_Vector_base<Luau::CodeGen::A64::AssemblyBuilderA64::Patch, std::allocator<Luau::CodeGen::A64::AssemblyBuilderA64::Patch>>::_Vector_impl_data" = type { ptr, ptr, ptr }
%"class.std::vector.0" = type { %"struct.std::_Vector_base.1" }
%"struct.std::_Vector_base.1" = type { %"struct.std::_Vector_base<unsigned int, std::allocator<unsigned int>>::_Vector_impl" }
%"struct.std::_Vector_base<unsigned int, std::allocator<unsigned int>>::_Vector_impl" = type { %"struct.std::_Vector_base<unsigned int, std::allocator<unsigned int>>::_Vector_impl_data" }
%"struct.std::_Vector_base<unsigned int, std::allocator<unsigned int>>::_Vector_impl_data" = type { ptr, ptr, ptr }

@.str.59 = private unnamed_addr constant [5 x i8] c"fsub\00", align 1
@.str.78 = private unnamed_addr constant [28 x i8] c" %-12sv%d.4s,v%d.4s,v%d.4s\0A\00", align 1

; Function Attrs: mustprogress uwtable
define dso_local void @_ZN4Luau7CodeGen3A6418AssemblyBuilderA646commitEv(ptr noundef nonnull align 8 dereferenceable(176) %0) #0 align 2 {
  %2 = alloca ptr, align 8
  store ptr %0, ptr %2, align 8, !tbaa !4
  %3 = load ptr, ptr %2, align 8
  %4 = getelementptr inbounds nuw %"class.Luau::CodeGen::A64::AssemblyBuilderA64", ptr %3, i32 0, i32 12
  %5 = load ptr, ptr %4, align 8, !tbaa !41
  %6 = getelementptr inbounds nuw %"class.Luau::CodeGen::A64::AssemblyBuilderA64", ptr %3, i32 0, i32 11
  %7 = load ptr, ptr %6, align 8, !tbaa !40
  %8 = icmp eq ptr %5, %7
  br i1 %8, label %9, label %10

9:                                                ; preds = %1
  call void @_ZN4Luau7CodeGen3A6418AssemblyBuilderA646extendEv(ptr noundef nonnull align 8 dereferenceable(176) %3)
  br label %10

10:                                               ; preds = %9, %1
  ret void
}

; Function Attrs: mustprogress nounwind uwtable
define dso_local void @_ZN4Luau7CodeGen3A6418AssemblyBuilderA645placeEj(ptr noundef nonnull align 8 dereferenceable(176) %0, i32 noundef %1) #1 align 2 {
  %3 = alloca ptr, align 8
  %4 = alloca i32, align 4
  store ptr %0, ptr %3, align 8, !tbaa !4
  store i32 %1, ptr %4, align 4, !tbaa !11
  %5 = load ptr, ptr %3, align 8
  %6 = load i32, ptr %4, align 4, !tbaa !11
  %7 = getelementptr inbounds nuw %"class.Luau::CodeGen::A64::AssemblyBuilderA64", ptr %5, i32 0, i32 11
  %8 = load ptr, ptr %7, align 8, !tbaa !40
  %9 = getelementptr inbounds nuw i32, ptr %8, i32 1
  store ptr %9, ptr %7, align 8, !tbaa !40
  store i32 %6, ptr %8, align 4, !tbaa !11
  ret void
}

; Function Attrs: mustprogress uwtable
define dso_local void @_ZN4Luau7CodeGen3A6418AssemblyBuilderA647placeVREPKcNS1_11RegisterA64ES5_S5_th(ptr noundef nonnull align 8 dereferenceable(176) %0, ptr noundef %1, i8 %2, i8 %3, i8 %4, i16 noundef zeroext %5, i8 noundef zeroext %6) #0 align 2 {
  %8 = alloca %"struct.Luau::CodeGen::A64::RegisterA64", align 1
  %9 = alloca %"struct.Luau::CodeGen::A64::RegisterA64", align 1
  %10 = alloca %"struct.Luau::CodeGen::A64::RegisterA64", align 1
  %11 = alloca ptr, align 8
  %12 = alloca ptr, align 8
  %13 = alloca i16, align 2
  %14 = alloca i8, align 1
  %15 = getelementptr inbounds nuw %"struct.Luau::CodeGen::A64::RegisterA64", ptr %8, i32 0, i32 0
  store i8 %2, ptr %15, align 1
  %16 = getelementptr inbounds nuw %"struct.Luau::CodeGen::A64::RegisterA64", ptr %9, i32 0, i32 0
  store i8 %3, ptr %16, align 1
  %17 = getelementptr inbounds nuw %"struct.Luau::CodeGen::A64::RegisterA64", ptr %10, i32 0, i32 0
  store i8 %4, ptr %17, align 1
  store ptr %0, ptr %11, align 8, !tbaa !4
  store ptr %1, ptr %12, align 8, !tbaa !61
  store i16 %5, ptr %13, align 2, !tbaa !62
  store i8 %6, ptr %14, align 1, !tbaa !58
  %18 = load ptr, ptr %11, align 8
  %19 = getelementptr inbounds nuw %"class.Luau::CodeGen::A64::AssemblyBuilderA64", ptr %18, i32 0, i32 3
  %20 = load i8, ptr %19, align 8, !tbaa !15, !range !13, !noundef !14
  %21 = trunc i8 %20 to i1
  br i1 %21, label %22, label %33

22:                                               ; preds = %7
  %23 = load ptr, ptr %12, align 8, !tbaa !61
  %24 = load i8, ptr %8, align 1
  %25 = lshr i8 %24, 3
  %26 = zext i8 %25 to i32
  %27 = load i8, ptr %9, align 1
  %28 = lshr i8 %27, 3
  %29 = zext i8 %28 to i32
  %30 = load i8, ptr %10, align 1
  %31 = lshr i8 %30, 3
  %32 = zext i8 %31 to i32
  call void (ptr, ptr, ...) @_ZN4Luau7CodeGen3A6418AssemblyBuilderA649logAppendEPKcz(ptr noundef nonnull align 8 dereferenceable(176) %18, ptr noundef @.str.78, ptr noundef %23, i32 noundef %26, i32 noundef %29, i32 noundef %32)
  br label %33

33:                                               ; preds = %22, %7
  %34 = load i8, ptr %8, align 1
  %35 = lshr i8 %34, 3
  %36 = zext i8 %35 to i32
  %37 = load i8, ptr %9, align 1
  %38 = lshr i8 %37, 3
  %39 = zext i8 %38 to i32
  %40 = shl i32 %39, 5
  %41 = or i32 %36, %40
  %42 = load i8, ptr %14, align 1, !tbaa !58
  %43 = zext i8 %42 to i32
  %44 = shl i32 %43, 10
  %45 = or i32 %41, %44
  %46 = load i8, ptr %10, align 1
  %47 = lshr i8 %46, 3
  %48 = zext i8 %47 to i32
  %49 = shl i32 %48, 16
  %50 = or i32 %45, %49
  %51 = load i16, ptr %13, align 2, !tbaa !62
  %52 = zext i16 %51 to i32
  %53 = shl i32 %52, 21
  %54 = or i32 %50, %53
  %55 = or i32 %54, 1073741824
  call void @_ZN4Luau7CodeGen3A6418AssemblyBuilderA645placeEj(ptr noundef nonnull align 8 dereferenceable(176) %18, i32 noundef %55)
  call void @_ZN4Luau7CodeGen3A6418AssemblyBuilderA646commitEv(ptr noundef nonnull align 8 dereferenceable(176) %18)
  ret void
}

; Function Attrs: mustprogress uwtable
define dso_local void @_ZN4Luau7CodeGen3A6418AssemblyBuilderA647placeR3EPKcNS1_11RegisterA64ES5_S5_hh(ptr noundef nonnull align 8 dereferenceable(176) %0, ptr noundef %1, i8 %2, i8 %3, i8 %4, i8 noundef zeroext %5, i8 noundef zeroext %6) #0 align 2 {
  %8 = alloca %"struct.Luau::CodeGen::A64::RegisterA64", align 1
  %9 = alloca %"struct.Luau::CodeGen::A64::RegisterA64", align 1
  %10 = alloca %"struct.Luau::CodeGen::A64::RegisterA64", align 1
  %11 = alloca ptr, align 8
  %12 = alloca ptr, align 8
  %13 = alloca i8, align 1
  %14 = alloca i8, align 1
  %15 = alloca %"struct.Luau::CodeGen::A64::RegisterA64", align 1
  %16 = alloca %"struct.Luau::CodeGen::A64::RegisterA64", align 1
  %17 = alloca %"struct.Luau::CodeGen::A64::RegisterA64", align 1
  %18 = alloca i32, align 4
  %19 = getelementptr inbounds nuw %"struct.Luau::CodeGen::A64::RegisterA64", ptr %8, i32 0, i32 0
  store i8 %2, ptr %19, align 1
  %20 = getelementptr inbounds nuw %"struct.Luau::CodeGen::A64::RegisterA64", ptr %9, i32 0, i32 0
  store i8 %3, ptr %20, align 1
  %21 = getelementptr inbounds nuw %"struct.Luau::CodeGen::A64::RegisterA64", ptr %10, i32 0, i32 0
  store i8 %4, ptr %21, align 1
  store ptr %0, ptr %11, align 8, !tbaa !4
  store ptr %1, ptr %12, align 8, !tbaa !61
  store i8 %5, ptr %13, align 1, !tbaa !58
  store i8 %6, ptr %14, align 1, !tbaa !58
  %22 = load ptr, ptr %11, align 8
  %23 = getelementptr inbounds nuw %"class.Luau::CodeGen::A64::AssemblyBuilderA64", ptr %22, i32 0, i32 3
  %24 = load i8, ptr %23, align 8, !tbaa !15, !range !13, !noundef !14
  %25 = trunc i8 %24 to i1
  br i1 %25, label %26, label %34

26:                                               ; preds = %7
  %27 = load ptr, ptr %12, align 8, !tbaa !61
  call void @llvm.memcpy.p0.p0.i64(ptr align 1 %15, ptr align 1 %8, i64 1, i1 false), !tbaa.struct !57
  call void @llvm.memcpy.p0.p0.i64(ptr align 1 %16, ptr align 1 %9, i64 1, i1 false), !tbaa.struct !57
  call void @llvm.memcpy.p0.p0.i64(ptr align 1 %17, ptr align 1 %10, i64 1, i1 false), !tbaa.struct !57
  %28 = getelementptr inbounds nuw %"struct.Luau::CodeGen::A64::RegisterA64", ptr %15, i32 0, i32 0
  %29 = load i8, ptr %28, align 1
  %30 = getelementptr inbounds nuw %"struct.Luau::CodeGen::A64::RegisterA64", ptr %16, i32 0, i32 0
  %31 = load i8, ptr %30, align 1
  %32 = getelementptr inbounds nuw %"struct.Luau::CodeGen::A64::RegisterA64", ptr %17, i32 0, i32 0
  %33 = load i8, ptr %32, align 1
  call void @_ZN4Luau7CodeGen3A6418AssemblyBuilderA643logEPKcNS1_11RegisterA64ES5_S5_i(ptr noundef nonnull align 8 dereferenceable(176) %22, ptr noundef %27, i8 %29, i8 %31, i8 %33, i32 noundef 0)
  br label %34

34:                                               ; preds = %26, %7
  call void @llvm.lifetime.start.p0(i64 4, ptr %18) #18
  %35 = load i8, ptr %8, align 1
  %36 = and i8 %35, 7
  %37 = icmp eq i8 %36, 2
  %38 = select i1 %37, i32 -2147483648, i32 0
  store i32 %38, ptr %18, align 4, !tbaa !11
  %39 = load i8, ptr %8, align 1
  %40 = lshr i8 %39, 3
  %41 = zext i8 %40 to i32
  %42 = load i8, ptr %9, align 1
  %43 = lshr i8 %42, 3
  %44 = zext i8 %43 to i32
  %45 = shl i32 %44, 5
  %46 = or i32 %41, %45
  %47 = load i8, ptr %14, align 1, !tbaa !58
  %48 = zext i8 %47 to i32
  %49 = shl i32 %48, 10
  %50 = or i32 %46, %49
  %51 = load i8, ptr %10, align 1
  %52 = lshr i8 %51, 3
  %53 = zext i8 %52 to i32
  %54 = shl i32 %53, 16
  %55 = or i32 %50, %54
  %56 = load i8, ptr %13, align 1, !tbaa !58
  %57 = zext i8 %56 to i32
  %58 = shl i32 %57, 21
  %59 = or i32 %55, %58
  %60 = load i32, ptr %18, align 4, !tbaa !11
  %61 = or i32 %59, %60
  call void @_ZN4Luau7CodeGen3A6418AssemblyBuilderA645placeEj(ptr noundef nonnull align 8 dereferenceable(176) %22, i32 noundef %61)
  call void @_ZN4Luau7CodeGen3A6418AssemblyBuilderA646commitEv(ptr noundef nonnull align 8 dereferenceable(176) %22)
  call void @llvm.lifetime.end.p0(i64 4, ptr %18) #18
  ret void
}

; Function Attrs: mustprogress uwtable
define dso_local void @_ZN4Luau7CodeGen3A6418AssemblyBuilderA644fsubENS1_11RegisterA64ES3_S3_(ptr noundef nonnull align 8 dereferenceable(176) %0, i8 %1, i8 %2, i8 %3) #0 align 2 {
  %5 = alloca %"struct.Luau::CodeGen::A64::RegisterA64", align 1
  %6 = alloca %"struct.Luau::CodeGen::A64::RegisterA64", align 1
  %7 = alloca %"struct.Luau::CodeGen::A64::RegisterA64", align 1
  %8 = alloca ptr, align 8
  %9 = alloca %"struct.Luau::CodeGen::A64::RegisterA64", align 1
  %10 = alloca %"struct.Luau::CodeGen::A64::RegisterA64", align 1
  %11 = alloca %"struct.Luau::CodeGen::A64::RegisterA64", align 1
  %12 = alloca %"struct.Luau::CodeGen::A64::RegisterA64", align 1
  %13 = alloca %"struct.Luau::CodeGen::A64::RegisterA64", align 1
  %14 = alloca %"struct.Luau::CodeGen::A64::RegisterA64", align 1
  %15 = alloca %"struct.Luau::CodeGen::A64::RegisterA64", align 1
  %16 = alloca %"struct.Luau::CodeGen::A64::RegisterA64", align 1
  %17 = alloca %"struct.Luau::CodeGen::A64::RegisterA64", align 1
  %18 = getelementptr inbounds nuw %"struct.Luau::CodeGen::A64::RegisterA64", ptr %5, i32 0, i32 0
  store i8 %1, ptr %18, align 1
  %19 = getelementptr inbounds nuw %"struct.Luau::CodeGen::A64::RegisterA64", ptr %6, i32 0, i32 0
  store i8 %2, ptr %19, align 1
  %20 = getelementptr inbounds nuw %"struct.Luau::CodeGen::A64::RegisterA64", ptr %7, i32 0, i32 0
  store i8 %3, ptr %20, align 1
  store ptr %0, ptr %8, align 8, !tbaa !4
  %21 = load ptr, ptr %8, align 8
  %22 = load i8, ptr %5, align 1
  %23 = and i8 %22, 7
  %24 = icmp eq i8 %23, 4
  br i1 %24, label %25, label %32

25:                                               ; preds = %4
  call void @llvm.memcpy.p0.p0.i64(ptr align 1 %9, ptr align 1 %5, i64 1, i1 false), !tbaa.struct !57
  call void @llvm.memcpy.p0.p0.i64(ptr align 1 %10, ptr align 1 %6, i64 1, i1 false), !tbaa.struct !57
  call void @llvm.memcpy.p0.p0.i64(ptr align 1 %11, ptr align 1 %7, i64 1, i1 false), !tbaa.struct !57
  %26 = getelementptr inbounds nuw %"struct.Luau::CodeGen::A64::RegisterA64", ptr %9, i32 0, i32 0
  %27 = load i8, ptr %26, align 1
  %28 = getelementptr inbounds nuw %"struct.Luau::CodeGen::A64::RegisterA64", ptr %10, i32 0, i32 0
  %29 = load i8, ptr %28, align 1
  %30 = getelementptr inbounds nuw %"struct.Luau::CodeGen::A64::RegisterA64", ptr %11, i32 0, i32 0
  %31 = load i8, ptr %30, align 1
  call void @_ZN4Luau7CodeGen3A6418AssemblyBuilderA647placeR3EPKcNS1_11RegisterA64ES5_S5_hh(ptr noundef nonnull align 8 dereferenceable(176) %21, ptr noundef @.str.59, i8 %27, i8 %29, i8 %31, i8 noundef zeroext -13, i8 noundef zeroext 14)
  br label %51

32:                                               ; preds = %4
  %33 = load i8, ptr %5, align 1
  %34 = and i8 %33, 7
  %35 = icmp eq i8 %34, 3
  br i1 %35, label %36, label %43

36:                                               ; preds = %32
  call void @llvm.memcpy.p0.p0.i64(ptr align 1 %12, ptr align 1 %5, i64 1, i1 false), !tbaa.struct !57
  call void @llvm.memcpy.p0.p0.i64(ptr align 1 %13, ptr align 1 %6, i64 1, i1 false), !tbaa.struct !57
  call void @llvm.memcpy.p0.p0.i64(ptr align 1 %14, ptr align 1 %7, i64 1, i1 false), !tbaa.struct !57
  %37 = getelementptr inbounds nuw %"struct.Luau::CodeGen::A64::RegisterA64", ptr %12, i32 0, i32 0
  %38 = load i8, ptr %37, align 1
  %39 = getelementptr inbounds nuw %"struct.Luau::CodeGen::A64::RegisterA64", ptr %13, i32 0, i32 0
  %40 = load i8, ptr %39, align 1
  %41 = getelementptr inbounds nuw %"struct.Luau::CodeGen::A64::RegisterA64", ptr %14, i32 0, i32 0
  %42 = load i8, ptr %41, align 1
  call void @_ZN4Luau7CodeGen3A6418AssemblyBuilderA647placeR3EPKcNS1_11RegisterA64ES5_S5_hh(ptr noundef nonnull align 8 dereferenceable(176) %21, ptr noundef @.str.59, i8 %38, i8 %40, i8 %42, i8 noundef zeroext -15, i8 noundef zeroext 14)
  br label %50

43:                                               ; preds = %32
  call void @llvm.memcpy.p0.p0.i64(ptr align 1 %15, ptr align 1 %5, i64 1, i1 false), !tbaa.struct !57
  call void @llvm.memcpy.p0.p0.i64(ptr align 1 %16, ptr align 1 %6, i64 1, i1 false), !tbaa.struct !57
  call void @llvm.memcpy.p0.p0.i64(ptr align 1 %17, ptr align 1 %7, i64 1, i1 false), !tbaa.struct !57
  %44 = getelementptr inbounds nuw %"struct.Luau::CodeGen::A64::RegisterA64", ptr %15, i32 0, i32 0
  %45 = load i8, ptr %44, align 1
  %46 = getelementptr inbounds nuw %"struct.Luau::CodeGen::A64::RegisterA64", ptr %16, i32 0, i32 0
  %47 = load i8, ptr %46, align 1
  %48 = getelementptr inbounds nuw %"struct.Luau::CodeGen::A64::RegisterA64", ptr %17, i32 0, i32 0
  %49 = load i8, ptr %48, align 1
  call void @_ZN4Luau7CodeGen3A6418AssemblyBuilderA647placeVREPKcNS1_11RegisterA64ES5_S5_th(ptr noundef nonnull align 8 dereferenceable(176) %21, ptr noundef @.str.59, i8 %45, i8 %47, i8 %49, i16 noundef zeroext 117, i8 noundef zeroext 53)
  br label %50

50:                                               ; preds = %43, %36
  br label %51

51:                                               ; preds = %50, %25
  ret void
}